; Function Attrs: mustprogress uwtable
define hidden void @_ZN4cvc58internal6theory11TheoryModel18setUnevaluatedKindENS0_4kind6Kind_tE(ptr noundef nonnull align 8 dereferenceable(904) %this, i32 noundef %k) local_unnamed_addr #3 align 2 {
entry:
  %__node_gen.i.i = alloca %"struct.std::__detail::_AllocNode.714", align 8
  %k.addr = alloca i32, align 4
  store i32 %k, ptr %k.addr, align 4
  %d_unevaluated_kinds = getelementptr inbounds i8, ptr %this, i64 56
  call void @llvm.lifetime.start.p0(i64 8, ptr nonnull %__node_gen.i.i)
  store ptr %d_unevaluated_kinds, ptr %__node_gen.i.i, align 8
  %call3.i.i.i = call { ptr, i8 } @_ZNSt10_HashtableIN4cvc58internal4kind6Kind_tES3_SaIS3_ENSt8__detail9_IdentityESt8equal_toIS3_ENS2_16KindHashFunctionENS5_18_Mod_range_hashingENS5_20_Default_ranged_hashENS5_20_Prime_rehash_policyENS5_17_Hashtable_traitsILb1ELb1ELb1EEEE16_M_insert_uniqueIRKS3_SI_NS5_10_AllocNodeISaINS5_10_Hash_nodeIS3_Lb1EEEEEEEESt4pairINS5_14_Node_iteratorIS3_Lb1ELb1EEEbEOT_OT0_RKT1_(ptr noundef nonnull align 8 dereferenceable(56) %d_unevaluated_kinds, ptr noundef nonnull align 4 dereferenceable(4) %k.addr, ptr noundef nonnull align 4 dereferenceable(4) %k.addr, ptr noundef nonnull align 8 dereferenceable(8) %__node_gen.i.i)
  call void @llvm.lifetime.end.p0(i64 8, ptr nonnull %__node_gen.i.i)
  ret void
}